target datalayout = "e-m:e-p270:32:32-p271:32:32-p272:64:64-i64:64-i128:128-f80:128-n8:16:32:64-S128"
target triple = "x86_64-pc-linux-gnu"

%struct.stb_vorbis = type { i32, i32, i32, i32, i32, ptr, i32, ptr, ptr, i32, i32, ptr, ptr, ptr, i32, i8, i32, %struct.ProbedPage, %struct.ProbedPage, %struct.stb_vorbis_alloc, i32, i32, i32, i32, [2 x i32], i32, i32, i32, ptr, i32, [64 x i16], ptr, i32, [64 x i16], ptr, i32, ptr, i32, [64 x %struct.Mode], i32, [16 x ptr], [16 x ptr], [16 x ptr], i32, [16 x ptr], i32, i32, [2 x ptr], [2 x ptr], [2 x ptr], [2 x ptr], [2 x ptr], i32, i32, i32, [255 x i8], i8, i8, i8, i32, i32, i32, i32, i32, i32, i32, i32, i32, i32, i32, [4 x %struct.CRCscan], i32, i32 }
%struct.ProbedPage = type { i32, i32, i32 }
%struct.stb_vorbis_alloc = type { ptr, i32 }
%struct.Mode = type { i8, i8, i16, i16 }
%struct.CRCscan = type { i32, i32, i32, i32, i32 }

; Function Attrs: nounwind uwtable
define ptr @setup_malloc(ptr noundef %0, i32 noundef %1) #0 {
  %3 = alloca ptr, align 8
  %4 = alloca ptr, align 8
  %5 = alloca i32, align 4
  %6 = alloca ptr, align 8
  %7 = alloca i32, align 4
  store ptr %0, ptr %4, align 8, !tbaa !3
  store i32 %1, ptr %5, align 4, !tbaa !8
  %8 = load i32, ptr %5, align 4, !tbaa !8
  %9 = add nsw i32 %8, 7
  %10 = and i32 %9, -8
  store i32 %10, ptr %5, align 4, !tbaa !8
  %11 = load i32, ptr %5, align 4, !tbaa !8
  %12 = load ptr, ptr %4, align 8, !tbaa !3
  %13 = getelementptr inbounds nuw %struct.stb_vorbis, ptr %12, i32 0, i32 2
  %14 = load i32, ptr %13, align 8, !tbaa !22
  %15 = add i32 %14, %11
  store i32 %15, ptr %13, align 8, !tbaa !22
  %16 = load ptr, ptr %4, align 8, !tbaa !3
  %17 = getelementptr inbounds nuw %struct.stb_vorbis, ptr %16, i32 0, i32 19
  %18 = getelementptr inbounds nuw %struct.stb_vorbis_alloc, ptr %17, i32 0, i32 0
  %19 = load ptr, ptr %18, align 8, !tbaa !23
  %20 = icmp ne ptr %19, null
  br i1 %20, label %21, label %49

21:                                               ; preds = %2
  call void @llvm.lifetime.start.p0(i64 8, ptr %6) #11
  %22 = load ptr, ptr %4, align 8, !tbaa !3
  %23 = getelementptr inbounds nuw %struct.stb_vorbis, ptr %22, i32 0, i32 19
  %24 = getelementptr inbounds nuw %struct.stb_vorbis_alloc, ptr %23, i32 0, i32 0
  %25 = load ptr, ptr %24, align 8, !tbaa !23
  %26 = load ptr, ptr %4, align 8, !tbaa !3
  %27 = getelementptr inbounds nuw %struct.stb_vorbis, ptr %26, i32 0, i32 20
  %28 = load i32, ptr %27, align 8, !tbaa !24
  %29 = sext i32 %28 to i64
  %30 = getelementptr inbounds i8, ptr %25, i64 %29
  store ptr %30, ptr %6, align 8, !tbaa !18
  %31 = load ptr, ptr %4, align 8, !tbaa !3
  %32 = getelementptr inbounds nuw %struct.stb_vorbis, ptr %31, i32 0, i32 20
  %33 = load i32, ptr %32, align 8, !tbaa !24
  %34 = load i32, ptr %5, align 4, !tbaa !8
  %35 = add nsw i32 %33, %34
  %36 = load ptr, ptr %4, align 8, !tbaa !3
  %37 = getelementptr inbounds nuw %struct.stb_vorbis, ptr %36, i32 0, i32 21
  %38 = load i32, ptr %37, align 4, !tbaa !25
  %39 = icmp sgt i32 %35, %38
  br i1 %39, label %40, label %41

40:                                               ; preds = %21
  store ptr null, ptr %3, align 8
  store i32 1, ptr %7, align 4
  br label %48

41:                                               ; preds = %21
  %42 = load i32, ptr %5, align 4, !tbaa !8
  %43 = load ptr, ptr %4, align 8, !tbaa !3
  %44 = getelementptr inbounds nuw %struct.stb_vorbis, ptr %43, i32 0, i32 20
  %45 = load i32, ptr %44, align 8, !tbaa !24
  %46 = add nsw i32 %45, %42
  store i32 %46, ptr %44, align 8, !tbaa !24
  %47 = load ptr, ptr %6, align 8, !tbaa !18
  store ptr %47, ptr %3, align 8
  store i32 1, ptr %7, align 4
  br label %48

48:                                               ; preds = %41, %40
  call void @llvm.lifetime.end.p0(i64 8, ptr %6) #11
  br label %59

49:                                               ; preds = %2
  %50 = load i32, ptr %5, align 4, !tbaa !8
  %51 = icmp ne i32 %50, 0
  br i1 %51, label %52, label %56

52:                                               ; preds = %49
  %53 = load i32, ptr %5, align 4, !tbaa !8
  %54 = sext i32 %53 to i64
  %55 = call noalias ptr @malloc(i64 noundef %54) #12
  br label %57

56:                                               ; preds = %49
  br label %57

57:                                               ; preds = %56, %52
  %58 = phi ptr [ %55, %52 ], [ null, %56 ]
  store ptr %58, ptr %3, align 8
  br label %59

59:                                               ; preds = %57, %48
  %60 = load ptr, ptr %3, align 8
  ret ptr %60
}