; Function Attrs: mustprogress nofree nounwind willreturn memory(argmem: readwrite, inaccessiblemem: readwrite) uwtable
define ptr @setup_malloc(ptr noundef captures(none) %0, i32 noundef %1) local_unnamed_addr #3 {
  %3 = add nsw i32 %1, 7
  %4 = and i32 %3, -8
  %5 = getelementptr inbounds nuw i8, ptr %0, i64 8
  %6 = load i32, ptr %5, align 8, !tbaa !9
  %7 = add i32 %6, %4
  store i32 %7, ptr %5, align 8, !tbaa !9
  %8 = getelementptr inbounds nuw i8, ptr %0, i64 128
  %9 = load ptr, ptr %8, align 8, !tbaa !17
  %.not = icmp eq ptr %9, null
  br i1 %.not, label %20, label %10

10:                                               ; preds = %2
  %11 = getelementptr inbounds nuw i8, ptr %0, i64 144
  %12 = load i32, ptr %11, align 8, !tbaa !18
  %13 = add nsw i32 %12, %4
  %14 = getelementptr inbounds nuw i8, ptr %0, i64 148
  %15 = load i32, ptr %14, align 4, !tbaa !19
  %16 = icmp sgt i32 %13, %15
  br i1 %16, label %24, label %17

17:                                               ; preds = %10
  %18 = sext i32 %12 to i64
  %19 = getelementptr inbounds i8, ptr %9, i64 %18
  store i32 %13, ptr %11, align 8, !tbaa !18
  br label %24

20:                                               ; preds = %2
  %.not17 = icmp eq i32 %4, 0
  br i1 %.not17, label %24, label %21

21:                                               ; preds = %20
  %22 = sext i32 %4 to i64
  %23 = tail call noalias ptr @malloc(i64 noundef %22) #34
  br label %24

24:                                               ; preds = %21, %20, %17, %10
  %.1 = phi ptr [ %19, %17 ], [ null, %10 ], [ %23, %21 ], [ null, %20 ]
  ret ptr %.1
}